; Function Attrs: null_pointer_is_valid sspstrong uwtable
define internal i32 @dissect_zbee_zcl_commissioning(ptr noundef %0, ptr noundef readonly captures(none) %1, ptr noundef %2, ptr noundef readonly captures(address_is_null) %3) #0 {
  %5 = icmp eq ptr %3, null
  br i1 %5, label %62, label %6

6:                                                ; preds = %4
  %7 = getelementptr inbounds nuw i8, ptr %3, i64 7
  %8 = load i8, ptr %7, align 1
  %9 = getelementptr inbounds nuw i8, ptr %3, i64 1
  %10 = load i8, ptr %9, align 1, !range !6, !noundef !7
  %11 = icmp eq i8 %10, 0
  %12 = getelementptr inbounds nuw i8, ptr %1, i64 8
  %13 = load ptr, ptr %12, align 8
  %14 = zext i8 %8 to i32
  %15 = getelementptr inbounds nuw i8, ptr %3, i64 6
  br i1 %11, label %16, label %46

16:                                               ; preds = %6
  %17 = tail call ptr @val_to_str_const(i32 noundef %14, ptr noundef nonnull @zbee_zcl_commissioning_srv_rx_cmd_names, ptr noundef nonnull @.str.1190)
  %18 = load i8, ptr %15, align 2
  %19 = zext i8 %18 to i32
  tail call void (ptr, i32, ptr, ...) @col_append_fstr(ptr noundef %13, i32 noundef 25, ptr noundef nonnull @.str.1189, ptr noundef %17, i32 noundef %19)
  %20 = load i32, ptr @hf_zbee_zcl_commissioning_srv_rx_cmd_id, align 4
  %21 = tail call ptr @proto_tree_add_item(ptr noundef %2, i32 noundef %20, ptr noundef %0, i32 noundef 0, i32 noundef 1, i32 noundef -2147483648)
  %22 = tail call i32 @tvb_reported_length_remaining(ptr noundef %0, i32 noundef 1)
  %23 = icmp sgt i32 %22, 0
  br i1 %23, label %24, label %60

24:                                               ; preds = %16
  %25 = load i32, ptr @ett_zbee_zcl_commissioning, align 4
  %26 = tail call ptr @proto_tree_add_subtree(ptr noundef %2, ptr noundef %0, i32 noundef 1, i32 noundef %22, i32 noundef %25, ptr noundef null, ptr noundef nonnull @.str.1241)
  switch i8 %8, label %60 [
    i8 0, label %27
    i8 3, label %35
    i8 1, label %41
    i8 2, label %41
  ]

27:                                               ; preds = %24
  %28 = load i32, ptr @hf_zbee_zcl_commissioning_restart_device_options, align 4
  %29 = load i32, ptr @ett_zbee_zcl_commissioning_restart_device_options, align 4
  %30 = tail call ptr @proto_tree_add_bitmask(ptr noundef %26, ptr noundef %0, i32 noundef 1, i32 noundef %28, i32 noundef %29, ptr noundef nonnull @dissect_zcl_commissioning_restart_device.restart_device_mask, i32 noundef -2147483648)
  %31 = load i32, ptr @hf_zbee_zcl_commissioning_delay, align 4
  %32 = tail call ptr @proto_tree_add_item(ptr noundef %26, i32 noundef %31, ptr noundef %0, i32 noundef 2, i32 noundef 1, i32 noundef -2147483648)
  %33 = load i32, ptr @hf_zbee_zcl_commissioning_jitter, align 4
  %34 = tail call ptr @proto_tree_add_item(ptr noundef %26, i32 noundef %33, ptr noundef %0, i32 noundef 3, i32 noundef 1, i32 noundef -2147483648)
  br label %60

35:                                               ; preds = %24
  %36 = load i32, ptr @hf_zbee_zcl_commissioning_reset_startup_options, align 4
  %37 = load i32, ptr @ett_zbee_zcl_commissioning_reset_startup_options, align 4
  %38 = tail call ptr @proto_tree_add_bitmask(ptr noundef %26, ptr noundef %0, i32 noundef 1, i32 noundef %36, i32 noundef %37, ptr noundef nonnull @dissect_zcl_commissioning_reset_startup_parameters.reset_startup_mask, i32 noundef -2147483648)
  %39 = load i32, ptr @hf_zbee_zcl_commissioning_index, align 4
  %40 = tail call ptr @proto_tree_add_item(ptr noundef %26, i32 noundef %39, ptr noundef %0, i32 noundef 2, i32 noundef 1, i32 noundef -2147483648)
  br label %60

41:                                               ; preds = %24, %24
  %42 = load i32, ptr @hf_zbee_zcl_commissioning_options, align 4
  %43 = tail call ptr @proto_tree_add_item(ptr noundef %26, i32 noundef %42, ptr noundef %0, i32 noundef 1, i32 noundef 1, i32 noundef -2147483648)
  %44 = load i32, ptr @hf_zbee_zcl_commissioning_index, align 4
  %45 = tail call ptr @proto_tree_add_item(ptr noundef %26, i32 noundef %44, ptr noundef %0, i32 noundef 2, i32 noundef 1, i32 noundef -2147483648)
  br label %60

46:                                               ; preds = %6
  %47 = tail call ptr @val_to_str_const(i32 noundef %14, ptr noundef nonnull @zbee_zcl_commissioning_srv_tx_cmd_names, ptr noundef nonnull @.str.1190)
  %48 = load i8, ptr %15, align 2
  %49 = zext i8 %48 to i32
  tail call void (ptr, i32, ptr, ...) @col_append_fstr(ptr noundef %13, i32 noundef 25, ptr noundef nonnull @.str.1189, ptr noundef %47, i32 noundef %49)
  %50 = load i32, ptr @hf_zbee_zcl_commissioning_srv_tx_cmd_id, align 4
  %51 = tail call ptr @proto_tree_add_item(ptr noundef %2, i32 noundef %50, ptr noundef %0, i32 noundef 0, i32 noundef 1, i32 noundef -2147483648)
  %52 = tail call i32 @tvb_reported_length_remaining(ptr noundef %0, i32 noundef 1)
  %53 = icmp sgt i32 %52, 0
  br i1 %53, label %54, label %60

54:                                               ; preds = %46
  %55 = load i32, ptr @ett_zbee_zcl_commissioning, align 4
  %56 = tail call ptr @proto_tree_add_subtree(ptr noundef %2, ptr noundef %0, i32 noundef 1, i32 noundef %52, i32 noundef %55, ptr noundef null, ptr noundef nonnull @.str.1241)
  %switch = icmp ult i8 %8, 4
  br i1 %switch, label %57, label %60

57:                                               ; preds = %54
  %58 = load i32, ptr @hf_zbee_zcl_commissioning_status, align 4
  %59 = tail call ptr @proto_tree_add_item(ptr noundef %56, i32 noundef %58, ptr noundef %0, i32 noundef 1, i32 noundef 1, i32 noundef -2147483648)
  br label %60

60:                                               ; preds = %54, %46, %57, %16, %24, %41, %35, %27
  %61 = tail call i32 @tvb_captured_length(ptr noundef %0)
  br label %62

62:                                               ; preds = %4, %60
  %.0 = phi i32 [ %61, %60 ], [ 0, %4 ]
  ret i32 %.0
}